; Function Attrs: mustprogress uwtable
define void @_ZN9benchmark11CreateRangeElli(ptr dead_on_unwind noalias writable sret(%"class.std::vector.25") align 8 initializes((0, 24)) %0, i64 noundef %1, i64 noundef %2, i32 noundef %3) local_unnamed_addr #5 personality ptr @__gxx_personality_v0 {
  tail call void @llvm.memset.p0.i64(ptr noundef nonnull align 8 dereferenceable(24) %0, i8 0, i64 24, i1 false)
  invoke void @_ZN9benchmark8internal8AddRangeIlEEvPSt6vectorIT_SaIS3_EES3_S3_i(ptr noundef nonnull %0, i64 noundef %1, i64 noundef %2, i32 noundef %3)
          to label %14 unwind label %5

5:                                                ; preds = %4
  %6 = landingpad { ptr, i32 }
          cleanup
  %7 = load ptr, ptr %0, align 8, !tbaa !58
  %.not.i.i.i = icmp eq ptr %7, null
  br i1 %.not.i.i.i, label %_ZNSt6vectorIlSaIlEED2Ev.exit, label %8

8:                                                ; preds = %5
  %9 = getelementptr inbounds nuw i8, ptr %0, i64 16
  %10 = load ptr, ptr %9, align 8, !tbaa !59
  %11 = ptrtoint ptr %10 to i64
  %12 = ptrtoint ptr %7 to i64
  %13 = sub i64 %11, %12
  tail call void @_ZdlPvm(ptr noundef nonnull %7, i64 noundef %13) #36
  br label %_ZNSt6vectorIlSaIlEED2Ev.exit

_ZNSt6vectorIlSaIlEED2Ev.exit:                    ; preds = %5, %8
  resume { ptr, i32 } %6

14:                                               ; preds = %4
  ret void
}